; Function Attrs: mustprogress uwtable
define void @_ZN6icu_7724DateTimePatternGenerator8initDataERKNS_6LocaleER10UErrorCodea(ptr noundef nonnull align 8 dereferenceable(4796) %0, ptr noundef nonnull align 8 dereferenceable(217) %1, ptr noundef nonnull align 4 dereferenceable(4) %2, i8 noundef signext %3) local_unnamed_addr #1 align 2 personality ptr @__gxx_personality_v0 {
  %5 = load i32, ptr %2, align 4, !tbaa !13
  %6 = icmp slt i32 %5, 1
  br i1 %6, label %7, label %29

7:                                                ; preds = %4
  %8 = getelementptr inbounds nuw i8, ptr %1, i64 216
  %9 = load i8, ptr %8, align 8, !tbaa !35
  %.not17 = icmp eq i8 %9, 0
  br i1 %.not17, label %11, label %10

10:                                               ; preds = %7
  store i32 1, ptr %2, align 4, !tbaa !13
  br label %29

11:                                               ; preds = %7
  %12 = getelementptr inbounds nuw i8, ptr %0, i64 4680
  tail call void @llvm.memset.p0.i64(ptr noundef nonnull align 8 dereferenceable(16) %12, i8 0, i64 16, i1 false)
  tail call void @_ZN6icu_7724DateTimePatternGenerator17addCanonicalItemsER10UErrorCode(ptr noundef nonnull align 8 dereferenceable(4796) %0, ptr noundef nonnull align 4 dereferenceable(4) %2)
  %.not18 = icmp eq i8 %3, 0
  br i1 %.not18, label %13, label %14

13:                                               ; preds = %11
  tail call void @_ZN6icu_7724DateTimePatternGenerator14addICUPatternsERKNS_6LocaleER10UErrorCode(ptr noundef nonnull align 8 dereferenceable(4796) %0, ptr noundef nonnull align 8 dereferenceable(217) %1, ptr noundef nonnull align 4 dereferenceable(4) %2)
  br label %14

14:                                               ; preds = %13, %11
  tail call void @_ZN6icu_7724DateTimePatternGenerator11addCLDRDataERKNS_6LocaleER10UErrorCode(ptr noundef nonnull align 8 dereferenceable(4796) %0, ptr noundef nonnull align 8 dereferenceable(217) %1, ptr noundef nonnull align 4 dereferenceable(4) %2)
  tail call void @_ZN6icu_7724DateTimePatternGenerator23setDateTimeFromCalendarERKNS_6LocaleER10UErrorCode(ptr noundef nonnull align 8 dereferenceable(4796) %0, ptr noundef nonnull align 8 dereferenceable(217) %1, ptr noundef nonnull align 4 dereferenceable(4) %2)
  tail call void @_ZN6icu_7724DateTimePatternGenerator17setDecimalSymbolsERKNS_6LocaleER10UErrorCode(ptr noundef nonnull align 8 dereferenceable(4796) %0, ptr noundef nonnull align 8 dereferenceable(217) %1, ptr noundef nonnull align 4 dereferenceable(4) %2)
  %15 = load i32, ptr %2, align 4, !tbaa !13
  %16 = icmp slt i32 %15, 1
  br i1 %16, label %17, label %_ZN6icu_7713umtx_initOnceERNS_9UInitOnceEPFvR10UErrorCodeES3_.exit

17:                                               ; preds = %14
  %18 = load atomic i32, ptr @_ZN6icu_7712_GLOBAL__N_18initOnceE acquire, align 4
  %.not11.i = icmp eq i32 %18, 2
  br i1 %.not11.i, label %23, label %19

19:                                               ; preds = %17
  %20 = tail call noundef signext i8 @_ZN6icu_7720umtx_initImplPreInitERNS_9UInitOnceE(ptr noundef nonnull align 4 dereferenceable(8) @_ZN6icu_7712_GLOBAL__N_18initOnceE)
  %.not12.i = icmp eq i8 %20, 0
  br i1 %.not12.i, label %23, label %21

21:                                               ; preds = %19
  tail call void @_ZN6icu_7724DateTimePatternGenerator26loadAllowedHourFormatsDataER10UErrorCode(ptr noundef nonnull align 4 dereferenceable(4) %2)
  %22 = load i32, ptr %2, align 4, !tbaa !13
  store i32 %22, ptr getelementptr inbounds nuw (i8, ptr @_ZN6icu_7712_GLOBAL__N_18initOnceE, i64 4), align 4, !tbaa !36
  tail call void @_ZN6icu_7721umtx_initImplPostInitERNS_9UInitOnceE(ptr noundef nonnull align 4 dereferenceable(8) @_ZN6icu_7712_GLOBAL__N_18initOnceE)
  br label %_ZN6icu_7713umtx_initOnceERNS_9UInitOnceEPFvR10UErrorCodeES3_.exit

23:                                               ; preds = %19, %17
  %24 = load i32, ptr getelementptr inbounds nuw (i8, ptr @_ZN6icu_7712_GLOBAL__N_18initOnceE, i64 4), align 4, !tbaa !36
  %25 = icmp slt i32 %24, 1
  br i1 %25, label %_ZN6icu_7713umtx_initOnceERNS_9UInitOnceEPFvR10UErrorCodeES3_.exit, label %26

26:                                               ; preds = %23
  store i32 %24, ptr %2, align 4, !tbaa !13
  br label %_ZN6icu_7713umtx_initOnceERNS_9UInitOnceEPFvR10UErrorCodeES3_.exit

_ZN6icu_7713umtx_initOnceERNS_9UInitOnceEPFvR10UErrorCodeES3_.exit: ; preds = %14, %21, %23, %26
  tail call void @_ZN6icu_7724DateTimePatternGenerator21getAllowedHourFormatsERKNS_6LocaleER10UErrorCode(ptr noundef nonnull align 8 dereferenceable(4796) %0, ptr noundef nonnull align 8 dereferenceable(217) %1, ptr noundef nonnull align 4 dereferenceable(4) %2)
  %27 = load i32, ptr %2, align 4, !tbaa !13
  %28 = getelementptr inbounds nuw i8, ptr %0, i64 4792
  store i32 %27, ptr %28, align 8, !tbaa !30
  br label %29

29:                                               ; preds = %4, %_ZN6icu_7713umtx_initOnceERNS_9UInitOnceEPFvR10UErrorCodeES3_.exit, %10
  ret void
}